; Function Attrs: nounwind uwtable
define dso_local void @ExecIndexScanInitializeWorker(ptr noundef captures(none) initializes((304, 312)) %0, ptr noundef readonly captures(none) %1) local_unnamed_addr #0 {
  %3 = getelementptr inbounds nuw i8, ptr %1, i64 8
  %4 = load ptr, ptr %3, align 8
  %5 = getelementptr inbounds nuw i8, ptr %0, i64 8
  %6 = load ptr, ptr %5, align 8
  %7 = getelementptr inbounds nuw i8, ptr %6, i64 40
  %8 = load i32, ptr %7, align 8
  %9 = sext i32 %8 to i64
  %10 = tail call ptr @shm_toc_lookup(ptr noundef %4, i64 noundef %9, i1 noundef zeroext false) #7
  %11 = getelementptr inbounds nuw i8, ptr %0, i64 200
  %12 = load ptr, ptr %11, align 8
  %13 = getelementptr inbounds nuw i8, ptr %0, i64 296
  %14 = load ptr, ptr %13, align 8
  %15 = getelementptr inbounds nuw i8, ptr %0, i64 248
  %16 = load i32, ptr %15, align 8
  %17 = getelementptr inbounds nuw i8, ptr %0, i64 264
  %18 = load i32, ptr %17, align 8
  %19 = tail call ptr @index_beginscan_parallel(ptr noundef %12, ptr noundef %14, i32 noundef %16, i32 noundef %18, ptr noundef %10) #7
  %20 = getelementptr inbounds nuw i8, ptr %0, i64 304
  store ptr %19, ptr %20, align 8
  %21 = getelementptr inbounds nuw i8, ptr %0, i64 280
  %22 = load i32, ptr %21, align 8
  %23 = icmp eq i32 %22, 0
  br i1 %23, label %28, label %24

24:                                               ; preds = %2
  %25 = getelementptr inbounds nuw i8, ptr %0, i64 284
  %26 = load i8, ptr %25, align 4, !range !4, !noundef !5
  %27 = trunc nuw i8 %26 to i1
  br i1 %27, label %28, label %35

28:                                               ; preds = %24, %2
  %29 = getelementptr inbounds nuw i8, ptr %0, i64 240
  %30 = load ptr, ptr %29, align 8
  %31 = load i32, ptr %15, align 8
  %32 = getelementptr inbounds nuw i8, ptr %0, i64 256
  %33 = load ptr, ptr %32, align 8
  %34 = load i32, ptr %17, align 8
  tail call void @index_rescan(ptr noundef %19, ptr noundef %30, i32 noundef %31, ptr noundef %33, i32 noundef %34) #7
  br label %35

35:                                               ; preds = %28, %24
  ret void
}